target datalayout = "e-m:e-p270:32:32-p271:32:32-p272:64:64-i64:64-i128:128-f80:128-n8:16:32:64-S128"
target triple = "x86_64-pc-linux-gnu"

%"class.pxrInternal_v0_24__pxrReserved__::HdSceneIndexNameRegistry" = type { %"class.std::unordered_map" }
%"class.std::unordered_map" = type { %"class.std::_Hashtable" }
%"class.std::_Hashtable" = type { ptr, i64, %"struct.std::__detail::_Hash_node_base", i64, %"struct.std::__detail::_Prime_rehash_policy", ptr }
%"struct.std::__detail::_Hash_node_base" = type { ptr }
%"struct.std::__detail::_Prime_rehash_policy" = type { float, i64 }
%"struct.std::atomic.7" = type { %"struct.std::__atomic_base.8" }
%"struct.std::__atomic_base.8" = type { i32 }
%"class.pxrInternal_v0_24__pxrReserved__::TfRefBase" = type <{ ptr, %"struct.std::atomic.7", [4 x i8] }>
%"class.pxrInternal_v0_24__pxrReserved__::TfRefPtr" = type { ptr }
%"class.pxrInternal_v0_24__pxrReserved__::TfWeakPtr.38" = type { ptr, %"class.pxrInternal_v0_24__pxrReserved__::TfRefPtr" }

; Function Attrs: mustprogress nounwind uwtable
define linkonce_odr noundef nonnull align 4 dereferenceable(4) ptr @_ZNK32pxrInternal_v0_24__pxrReserved__9TfRefBase12_GetRefCountEv(ptr noundef nonnull align 8 dereferenceable(12) %0) #1 comdat align 2 {
  %2 = alloca ptr, align 8
  store ptr %0, ptr %2, align 8
  %3 = load ptr, ptr %2, align 8
  %4 = getelementptr inbounds nuw %"class.pxrInternal_v0_24__pxrReserved__::TfRefBase", ptr %3, i32 0, i32 1
  ret ptr %4
}

; Function Attrs: mustprogress nounwind uwtable
define linkonce_odr void @_ZN32pxrInternal_v0_24__pxrReserved__24Tf_RefPtrTracker_LastRefEPKvS1_(ptr noundef %0, ptr noundef %1) #1 comdat {
  %3 = alloca ptr, align 8
  %4 = alloca ptr, align 8
  store ptr %0, ptr %3, align 8
  store ptr %1, ptr %4, align 8
  ret void
}

; Function Attrs: mustprogress uwtable
define linkonce_odr noundef zeroext i1 @_ZN32pxrInternal_v0_24__pxrReserved__17Tf_RefPtr_Counter9RemoveRefEPKNS_9TfRefBaseE(ptr noundef %0) #0 comdat align 2 {
  %2 = alloca ptr, align 8
  %3 = alloca i32, align 4
  %4 = alloca i32, align 4
  %5 = alloca i32, align 4
  %6 = alloca i32, align 4
  %7 = alloca i1, align 1
  %8 = alloca ptr, align 8
  store ptr %0, ptr %8, align 8
  %9 = load ptr, ptr %8, align 8
  %10 = icmp ne ptr %9, null
  %11 = xor i1 %10, true
  br i1 %11, label %12, label %13

12:                                               ; preds = %1
  store i1 false, ptr %7, align 1
  br label %37

13:                                               ; preds = %1
  %14 = load ptr, ptr %8, align 8
  %15 = call noundef nonnull align 4 dereferenceable(4) ptr @_ZNK32pxrInternal_v0_24__pxrReserved__9TfRefBase12_GetRefCountEv(ptr noundef nonnull align 8 dereferenceable(12) %14)
  store ptr %15, ptr %2, align 8
  store i32 1, ptr %3, align 4
  store i32 3, ptr %4, align 4
  %16 = load ptr, ptr %2, align 8
  %17 = load i32, ptr %4, align 4
  %18 = load i32, ptr %3, align 4
  store i32 %18, ptr %5, align 4
  switch i32 %17, label %19 [
    i32 1, label %22
    i32 2, label %22
    i32 3, label %25
    i32 4, label %28
    i32 5, label %31
  ]

19:                                               ; preds = %13
  %20 = load i32, ptr %5, align 4
  %21 = atomicrmw sub ptr %16, i32 %20 monotonic, align 4
  store i32 %21, ptr %6, align 4
  br label %34

22:                                               ; preds = %13, %13
  %23 = load i32, ptr %5, align 4
  %24 = atomicrmw sub ptr %16, i32 %23 acquire, align 4
  store i32 %24, ptr %6, align 4
  br label %34

25:                                               ; preds = %13
  %26 = load i32, ptr %5, align 4
  %27 = atomicrmw sub ptr %16, i32 %26 release, align 4
  store i32 %27, ptr %6, align 4
  br label %34

28:                                               ; preds = %13
  %29 = load i32, ptr %5, align 4
  %30 = atomicrmw sub ptr %16, i32 %29 acq_rel, align 4
  store i32 %30, ptr %6, align 4
  br label %34

31:                                               ; preds = %13
  %32 = load i32, ptr %5, align 4
  %33 = atomicrmw sub ptr %16, i32 %32 seq_cst, align 4
  store i32 %33, ptr %6, align 4
  br label %34

34:                                               ; preds = %31, %28, %25, %22, %19
  %35 = load i32, ptr %6, align 4
  %36 = icmp eq i32 %35, 1
  store i1 %36, ptr %7, align 1
  br label %37

37:                                               ; preds = %34, %12
  %38 = load i1, ptr %7, align 1
  ret i1 %38
}

; Function Attrs: mustprogress nounwind uwtable
define linkonce_odr void @_ZN32pxrInternal_v0_24__pxrReserved__17Tf_RefPtr_Counter6AddRefEPKNS_9TfRefBaseE(ptr noundef %0) #1 comdat align 2 {
  %2 = alloca ptr, align 8
  %3 = alloca i32, align 4
  %4 = alloca i32, align 4
  %5 = alloca i32, align 4
  %6 = alloca i32, align 4
  %7 = alloca ptr, align 8
  store ptr %0, ptr %7, align 8
  %8 = load ptr, ptr %7, align 8
  %9 = icmp ne ptr %8, null
  %10 = xor i1 %9, true
  br i1 %10, label %11, label %12

11:                                               ; preds = %1
  br label %34

12:                                               ; preds = %1
  %13 = load ptr, ptr %7, align 8
  %14 = call noundef nonnull align 4 dereferenceable(4) ptr @_ZNK32pxrInternal_v0_24__pxrReserved__9TfRefBase12_GetRefCountEv(ptr noundef nonnull align 8 dereferenceable(12) %13)
  store ptr %14, ptr %2, align 8
  store i32 1, ptr %3, align 4
  store i32 0, ptr %4, align 4
  %15 = load ptr, ptr %2, align 8
  %16 = load i32, ptr %4, align 4
  %17 = load i32, ptr %3, align 4
  store i32 %17, ptr %5, align 4
  switch i32 %16, label %18 [
    i32 1, label %21
    i32 2, label %21
    i32 3, label %24
    i32 4, label %27
    i32 5, label %30
  ]

18:                                               ; preds = %12
  %19 = load i32, ptr %5, align 4
  %20 = atomicrmw add ptr %15, i32 %19 monotonic, align 4
  store i32 %20, ptr %6, align 4
  br label %33

21:                                               ; preds = %12, %12
  %22 = load i32, ptr %5, align 4
  %23 = atomicrmw add ptr %15, i32 %22 acquire, align 4
  store i32 %23, ptr %6, align 4
  br label %33

24:                                               ; preds = %12
  %25 = load i32, ptr %5, align 4
  %26 = atomicrmw add ptr %15, i32 %25 release, align 4
  store i32 %26, ptr %6, align 4
  br label %33

27:                                               ; preds = %12
  %28 = load i32, ptr %5, align 4
  %29 = atomicrmw add ptr %15, i32 %28 acq_rel, align 4
  store i32 %29, ptr %6, align 4
  br label %33

30:                                               ; preds = %12
  %31 = load i32, ptr %5, align 4
  %32 = atomicrmw add ptr %15, i32 %31 seq_cst, align 4
  store i32 %32, ptr %6, align 4
  br label %33

33:                                               ; preds = %30, %27, %24, %21, %18
  br label %34

34:                                               ; preds = %33, %11
  ret void
}

; Function Attrs: mustprogress uwtable
define linkonce_odr void @_ZNK32pxrInternal_v0_24__pxrReserved__8TfRefPtrINS_10Tf_RemnantEE10_RemoveRefEPKNS_9TfRefBaseE(ptr noundef nonnull align 8 dereferenceable(8) %0, ptr noundef %1) #0 comdat align 2 {
  %3 = alloca ptr, align 8
  %4 = alloca ptr, align 8
  store ptr %0, ptr %3, align 8
  store ptr %1, ptr %4, align 8
  %5 = load ptr, ptr %3, align 8
  %6 = load ptr, ptr %4, align 8
  %7 = call noundef zeroext i1 @_ZN32pxrInternal_v0_24__pxrReserved__17Tf_RefPtr_Counter9RemoveRefEPKNS_9TfRefBaseE(ptr noundef %6)
  br i1 %7, label %8, label %17

8:                                                ; preds = %2
  %9 = load ptr, ptr %4, align 8
  call void @_ZN32pxrInternal_v0_24__pxrReserved__24Tf_RefPtrTracker_LastRefEPKvS1_(ptr noundef %5, ptr noundef %9)
  %10 = load ptr, ptr %4, align 8
  %11 = icmp eq ptr %10, null
  br i1 %11, label %16, label %12

12:                                               ; preds = %8
  %13 = load ptr, ptr %10, align 8
  %14 = getelementptr inbounds ptr, ptr %13, i64 1
  %15 = load ptr, ptr %14, align 8
  call void %15(ptr noundef nonnull align 8 dereferenceable(12) %10) #13
  br label %16

16:                                               ; preds = %12, %8
  br label %17

17:                                               ; preds = %16, %2
  ret void
}

; Function Attrs: mustprogress uwtable
define linkonce_odr void @_ZNK32pxrInternal_v0_24__pxrReserved__8TfRefPtrINS_10Tf_RemnantEE7_AddRefEv(ptr noundef nonnull align 8 dereferenceable(8) %0) #0 comdat align 2 {
  %2 = alloca ptr, align 8
  store ptr %0, ptr %2, align 8
  %3 = load ptr, ptr %2, align 8
  %4 = getelementptr inbounds nuw %"class.pxrInternal_v0_24__pxrReserved__::TfRefPtr", ptr %3, i32 0, i32 0
  %5 = load ptr, ptr %4, align 8
  call void @_ZN32pxrInternal_v0_24__pxrReserved__17Tf_RefPtr_Counter6AddRefEPKNS_9TfRefBaseE(ptr noundef %5)
  ret void
}

; Function Attrs: mustprogress nounwind uwtable
define linkonce_odr void @_ZN32pxrInternal_v0_24__pxrReserved__23Tf_RefPtrTracker_AssignEPKvS1_S1_(ptr noundef %0, ptr noundef %1, ptr noundef %2) #1 comdat {
  %4 = alloca ptr, align 8
  %5 = alloca ptr, align 8
  %6 = alloca ptr, align 8
  store ptr %0, ptr %4, align 8
  store ptr %1, ptr %5, align 8
  store ptr %2, ptr %6, align 8
  ret void
}

; Function Attrs: mustprogress nounwind uwtable
define linkonce_odr noundef ptr @_ZNK32pxrInternal_v0_24__pxrReserved__8TfRefPtrINS_10Tf_RemnantEE21_GetObjectForTrackingEv(ptr noundef nonnull align 8 dereferenceable(8) %0) #1 comdat align 2 {
  %2 = alloca ptr, align 8
  store ptr %0, ptr %2, align 8
  %3 = load ptr, ptr %2, align 8
  %4 = getelementptr inbounds nuw %"class.pxrInternal_v0_24__pxrReserved__::TfRefPtr", ptr %3, i32 0, i32 0
  %5 = load ptr, ptr %4, align 8
  ret ptr %5
}

; Function Attrs: mustprogress uwtable
define linkonce_odr noundef nonnull align 8 dereferenceable(8) ptr @_ZN32pxrInternal_v0_24__pxrReserved__8TfRefPtrINS_10Tf_RemnantEEaSERKS2_(ptr noundef nonnull align 8 dereferenceable(8) %0, ptr noundef nonnull align 8 dereferenceable(8) %1) #0 comdat align 2 {
  %3 = alloca ptr, align 8
  %4 = alloca ptr, align 8
  %5 = alloca ptr, align 8
  store ptr %0, ptr %3, align 8
  store ptr %1, ptr %4, align 8
  %6 = load ptr, ptr %3, align 8
  %7 = load ptr, ptr %4, align 8
  %8 = call noundef ptr @_ZNK32pxrInternal_v0_24__pxrReserved__8TfRefPtrINS_10Tf_RemnantEE21_GetObjectForTrackingEv(ptr noundef nonnull align 8 dereferenceable(8) %7)
  %9 = call noundef ptr @_ZNK32pxrInternal_v0_24__pxrReserved__8TfRefPtrINS_10Tf_RemnantEE21_GetObjectForTrackingEv(ptr noundef nonnull align 8 dereferenceable(8) %6)
  call void @_ZN32pxrInternal_v0_24__pxrReserved__23Tf_RefPtrTracker_AssignEPKvS1_S1_(ptr noundef %6, ptr noundef %8, ptr noundef %9)
  %10 = getelementptr inbounds nuw %"class.pxrInternal_v0_24__pxrReserved__::TfRefPtr", ptr %6, i32 0, i32 0
  %11 = load ptr, ptr %10, align 8
  store ptr %11, ptr %5, align 8
  %12 = load ptr, ptr %4, align 8
  %13 = getelementptr inbounds nuw %"class.pxrInternal_v0_24__pxrReserved__::TfRefPtr", ptr %12, i32 0, i32 0
  %14 = load ptr, ptr %13, align 8
  %15 = getelementptr inbounds nuw %"class.pxrInternal_v0_24__pxrReserved__::TfRefPtr", ptr %6, i32 0, i32 0
  store ptr %14, ptr %15, align 8
  %16 = load ptr, ptr %4, align 8
  call void @_ZNK32pxrInternal_v0_24__pxrReserved__8TfRefPtrINS_10Tf_RemnantEE7_AddRefEv(ptr noundef nonnull align 8 dereferenceable(8) %16)
  %17 = load ptr, ptr %5, align 8
  call void @_ZNK32pxrInternal_v0_24__pxrReserved__8TfRefPtrINS_10Tf_RemnantEE10_RemoveRefEPKNS_9TfRefBaseE(ptr noundef nonnull align 8 dereferenceable(8) %6, ptr noundef %17)
  ret ptr %6
}

; Function Attrs: mustprogress uwtable
define linkonce_odr noundef nonnull align 8 dereferenceable(16) ptr @_ZN32pxrInternal_v0_24__pxrReserved__9TfWeakPtrINS_16HdSceneIndexBaseEEaSERKS2_(ptr noundef nonnull align 8 dereferenceable(16) %0, ptr noundef nonnull align 8 dereferenceable(16) %1) #0 comdat align 2 {
  %3 = alloca ptr, align 8
  %4 = alloca ptr, align 8
  store ptr %0, ptr %3, align 8
  store ptr %1, ptr %4, align 8
  %5 = load ptr, ptr %3, align 8
  %6 = load ptr, ptr %4, align 8
  %7 = getelementptr inbounds nuw %"class.pxrInternal_v0_24__pxrReserved__::TfWeakPtr.38", ptr %6, i32 0, i32 0
  %8 = load ptr, ptr %7, align 8
  %9 = getelementptr inbounds nuw %"class.pxrInternal_v0_24__pxrReserved__::TfWeakPtr.38", ptr %5, i32 0, i32 0
  store ptr %8, ptr %9, align 8
  %10 = getelementptr inbounds nuw %"class.pxrInternal_v0_24__pxrReserved__::TfWeakPtr.38", ptr %5, i32 0, i32 1
  %11 = load ptr, ptr %4, align 8
  %12 = getelementptr inbounds nuw %"class.pxrInternal_v0_24__pxrReserved__::TfWeakPtr.38", ptr %11, i32 0, i32 1
  %13 = call noundef nonnull align 8 dereferenceable(8) ptr @_ZN32pxrInternal_v0_24__pxrReserved__8TfRefPtrINS_10Tf_RemnantEEaSERKS2_(ptr noundef nonnull align 8 dereferenceable(8) %10, ptr noundef nonnull align 8 dereferenceable(8) %12)
  ret ptr %5
}

; Function Attrs: mustprogress uwtable
define linkonce_odr noundef nonnull align 8 dereferenceable(16) ptr @_ZNSt13unordered_mapINSt7__cxx1112basic_stringIcSt11char_traitsIcESaIcEEEN32pxrInternal_v0_24__pxrReserved__9TfWeakPtrINS6_16HdSceneIndexBaseEEESt4hashIS5_ESt8equal_toIS5_ESaISt4pairIKS5_S9_EEEixERSF_(ptr noundef nonnull align 8 dereferenceable(56) %0, ptr noundef nonnull align 8 dereferenceable(32) %1) #0 comdat align 2 {
  %3 = alloca ptr, align 8
  %4 = alloca ptr, align 8
  store ptr %0, ptr %3, align 8
  store ptr %1, ptr %4, align 8
  %5 = load ptr, ptr %3, align 8
  %6 = getelementptr inbounds nuw %"class.std::unordered_map", ptr %5, i32 0, i32 0
  %7 = load ptr, ptr %4, align 8
  %8 = call noundef nonnull align 8 dereferenceable(16) ptr @_ZNSt8__detail9_Map_baseINSt7__cxx1112basic_stringIcSt11char_traitsIcESaIcEEESt4pairIKS6_N32pxrInternal_v0_24__pxrReserved__9TfWeakPtrINS9_16HdSceneIndexBaseEEEESaISD_ENS_10_Select1stESt8equal_toIS6_ESt4hashIS6_ENS_18_Mod_range_hashingENS_20_Default_ranged_hashENS_20_Prime_rehash_policyENS_17_Hashtable_traitsILb1ELb0ELb1EEELb1EEixERS8_(ptr noundef nonnull align 1 dereferenceable(1) %6, ptr noundef nonnull align 8 dereferenceable(32) %7)
  ret ptr %8
}

; Function Attrs: mustprogress uwtable
define void @_ZN32pxrInternal_v0_24__pxrReserved__24HdSceneIndexNameRegistry23RegisterNamedSceneIndexERKNSt7__cxx1112basic_stringIcSt11char_traitsIcESaIcEEENS_9TfWeakPtrINS_16HdSceneIndexBaseEEE(ptr noundef nonnull align 8 dereferenceable(56) %0, ptr noundef nonnull align 8 dereferenceable(32) %1, ptr noundef %2) #0 align 2 {
  %4 = alloca ptr, align 8
  %5 = alloca ptr, align 8
  %6 = alloca ptr, align 8
  store ptr %0, ptr %4, align 8
  store ptr %1, ptr %5, align 8
  store ptr %2, ptr %6, align 8
  %7 = load ptr, ptr %4, align 8
  %8 = getelementptr inbounds nuw %"class.pxrInternal_v0_24__pxrReserved__::HdSceneIndexNameRegistry", ptr %7, i32 0, i32 0
  %9 = load ptr, ptr %5, align 8
  %10 = call noundef nonnull align 8 dereferenceable(16) ptr @_ZNSt13unordered_mapINSt7__cxx1112basic_stringIcSt11char_traitsIcESaIcEEEN32pxrInternal_v0_24__pxrReserved__9TfWeakPtrINS6_16HdSceneIndexBaseEEESt4hashIS5_ESt8equal_toIS5_ESaISt4pairIKS5_S9_EEEixERSF_(ptr noundef nonnull align 8 dereferenceable(56) %8, ptr noundef nonnull align 8 dereferenceable(32) %9)
  %11 = call noundef nonnull align 8 dereferenceable(16) ptr @_ZN32pxrInternal_v0_24__pxrReserved__9TfWeakPtrINS_16HdSceneIndexBaseEEaSERKS2_(ptr noundef nonnull align 8 dereferenceable(16) %10, ptr noundef nonnull align 8 dereferenceable(16) %2)
  ret void
}