; Function Attrs: mustprogress uwtable
define void @_ZN32pxrInternal_v0_24__pxrReserved__24HdSceneIndexNameRegistry23RegisterNamedSceneIndexERKNSt7__cxx1112basic_stringIcSt11char_traitsIcESaIcEEENS_9TfWeakPtrINS_16HdSceneIndexBaseEEE(ptr noundef nonnull align 8 dereferenceable(56) %0, ptr noundef nonnull align 8 dereferenceable(32) %1, ptr nocapture noundef readonly %2) local_unnamed_addr #0 align 2 {
  %4 = tail call noundef nonnull align 8 dereferenceable(16) ptr @_ZNSt8__detail9_Map_baseINSt7__cxx1112basic_stringIcSt11char_traitsIcESaIcEEESt4pairIKS6_N32pxrInternal_v0_24__pxrReserved__9TfWeakPtrINS9_16HdSceneIndexBaseEEEESaISD_ENS_10_Select1stESt8equal_toIS6_ESt4hashIS6_ENS_18_Mod_range_hashingENS_20_Default_ranged_hashENS_20_Prime_rehash_policyENS_17_Hashtable_traitsILb1ELb0ELb1EEELb1EEixERS8_(ptr noundef nonnull align 1 dereferenceable(1) %0, ptr noundef nonnull align 8 dereferenceable(32) %1)
  %5 = load ptr, ptr %2, align 8
  store ptr %5, ptr %4, align 8
  %6 = getelementptr inbounds nuw i8, ptr %4, i64 8
  %7 = getelementptr inbounds nuw i8, ptr %2, i64 8
  %8 = load ptr, ptr %6, align 8
  %9 = load ptr, ptr %7, align 8
  store ptr %9, ptr %6, align 8
  %.not.i.i.i.i = icmp eq ptr %9, null
  br i1 %.not.i.i.i.i, label %_ZNK32pxrInternal_v0_24__pxrReserved__8TfRefPtrINS_10Tf_RemnantEE7_AddRefEv.exit.i.i, label %10

10:                                               ; preds = %3
  %11 = getelementptr inbounds nuw i8, ptr %9, i64 8
  %12 = atomicrmw add ptr %11, i32 1 monotonic, align 4
  br label %_ZNK32pxrInternal_v0_24__pxrReserved__8TfRefPtrINS_10Tf_RemnantEE7_AddRefEv.exit.i.i

_ZNK32pxrInternal_v0_24__pxrReserved__8TfRefPtrINS_10Tf_RemnantEE7_AddRefEv.exit.i.i: ; preds = %10, %3
  %.not.i.i5.i.i = icmp eq ptr %8, null
  br i1 %.not.i.i5.i.i, label %_ZN32pxrInternal_v0_24__pxrReserved__9TfWeakPtrINS_16HdSceneIndexBaseEEaSERKS2_.exit, label %_ZN32pxrInternal_v0_24__pxrReserved__17Tf_RefPtr_Counter9RemoveRefEPKNS_9TfRefBaseE.exit.i.i.i

_ZN32pxrInternal_v0_24__pxrReserved__17Tf_RefPtr_Counter9RemoveRefEPKNS_9TfRefBaseE.exit.i.i.i: ; preds = %_ZNK32pxrInternal_v0_24__pxrReserved__8TfRefPtrINS_10Tf_RemnantEE7_AddRefEv.exit.i.i
  %13 = getelementptr inbounds nuw i8, ptr %8, i64 8
  %14 = atomicrmw sub ptr %13, i32 1 release, align 4
  %15 = icmp eq i32 %14, 1
  br i1 %15, label %16, label %_ZN32pxrInternal_v0_24__pxrReserved__9TfWeakPtrINS_16HdSceneIndexBaseEEaSERKS2_.exit

16:                                               ; preds = %_ZN32pxrInternal_v0_24__pxrReserved__17Tf_RefPtr_Counter9RemoveRefEPKNS_9TfRefBaseE.exit.i.i.i
  %17 = load ptr, ptr %8, align 8
  %18 = getelementptr inbounds i8, ptr %17, i64 8
  %19 = load ptr, ptr %18, align 8
  tail call void %19(ptr noundef nonnull align 8 dereferenceable(12) %8) #20
  br label %_ZN32pxrInternal_v0_24__pxrReserved__9TfWeakPtrINS_16HdSceneIndexBaseEEaSERKS2_.exit

_ZN32pxrInternal_v0_24__pxrReserved__9TfWeakPtrINS_16HdSceneIndexBaseEEaSERKS2_.exit: ; preds = %_ZNK32pxrInternal_v0_24__pxrReserved__8TfRefPtrINS_10Tf_RemnantEE7_AddRefEv.exit.i.i, %_ZN32pxrInternal_v0_24__pxrReserved__17Tf_RefPtr_Counter9RemoveRefEPKNS_9TfRefBaseE.exit.i.i.i, %16
  ret void
}